; Function Attrs: mustprogress sspstrong uwtable
define noundef nonnull align 8 dereferenceable(17) ptr @_ZN4FLAC8Metadata9Prototype13assign_objectEP20FLAC__StreamMetadatab(ptr noundef nonnull returned align 8 dereferenceable(17) %this, ptr noundef %object, i1 noundef zeroext %copy) local_unnamed_addr #0 align 2 {
entry:
  %vtable = load ptr, ptr %this, align 8
  %0 = load ptr, ptr %vtable, align 8
  tail call void %0(ptr noundef nonnull align 8 dereferenceable(17) %this)
  br i1 %copy, label %cond.true, label %cond.end

cond.true:                                        ; preds = %entry
  %call = tail call ptr @FLAC__metadata_object_clone(ptr noundef %object)
  br label %cond.end

cond.end:                                         ; preds = %entry, %cond.true
  %cond = phi ptr [ %call, %cond.true ], [ %object, %entry ]
  %object_ = getelementptr inbounds i8, ptr %this, i64 8
  store ptr %cond, ptr %object_, align 8
  %is_reference_ = getelementptr inbounds i8, ptr %this, i64 16
  store i8 0, ptr %is_reference_, align 8
  ret ptr %this
}